; Function Attrs: mustprogress uwtable
define internal noundef ptr @_ZL18pj_cass_destructorP8PJconstsi(ptr noundef %0, i32 noundef %1) #0 {
  %3 = icmp eq ptr %0, null
  br i1 %3, label %11, label %4

4:                                                ; preds = %2
  %5 = getelementptr inbounds nuw i8, ptr %0, i64 88
  %6 = load ptr, ptr %5, align 8, !tbaa !43
  %7 = icmp eq ptr %6, null
  br i1 %7, label %.sink.split, label %8

8:                                                ; preds = %4
  %9 = load ptr, ptr %6, align 8, !tbaa !46
  tail call void @free(ptr noundef %9) #8
  br label %.sink.split

.sink.split:                                      ; preds = %4, %8
  %10 = tail call noundef ptr @_Z21pj_default_destructorP8PJconstsi(ptr noundef nonnull %0, i32 noundef %1)
  br label %11

11:                                               ; preds = %.sink.split, %2
  %.0 = phi ptr [ null, %2 ], [ %10, %.sink.split ]
  ret ptr %.0
}